; Function Attrs: nounwind uwtable
define hidden noalias ptr @mi_zalloc_small(i64 noundef %0) local_unnamed_addr #3 {
  %2 = tail call align 8 ptr @llvm.threadlocal.address.p0(ptr align 8 @_mi_heap_default)
  %3 = load ptr, ptr %2, align 8, !tbaa !3
  %4 = add i64 %0, 7
  %5 = lshr i64 %4, 3
  %6 = getelementptr inbounds nuw i8, ptr %3, i64 232
  %7 = getelementptr inbounds nuw [129 x ptr], ptr %6, i64 0, i64 %5
  %8 = load ptr, ptr %7, align 8, !tbaa !9
  %9 = getelementptr inbounds nuw i8, ptr %8, i64 8
  %10 = load ptr, ptr %9, align 8, !tbaa !11
  %11 = icmp eq ptr %10, null
  br i1 %11, label %12, label %14, !prof !17

12:                                               ; preds = %1
  %13 = tail call noalias ptr @_mi_malloc_generic(ptr noundef nonnull %3, i64 noundef %0, i1 noundef zeroext true, i64 noundef 0) #19
  br label %mi_heap_malloc_small_zero.exit

14:                                               ; preds = %1
  %.val.i.i = load i64, ptr %10, align 8, !tbaa !18
  %15 = inttoptr i64 %.val.i.i to ptr
  store ptr %15, ptr %9, align 8, !tbaa !11
  %16 = getelementptr inbounds nuw i8, ptr %8, i64 24
  %17 = load i16, ptr %16, align 8, !tbaa !20
  %18 = add i16 %17, 1
  store i16 %18, ptr %16, align 8, !tbaa !20
  %19 = getelementptr inbounds nuw i8, ptr %8, i64 7
  %20 = load i8, ptr %19, align 1
  %21 = and i8 %20, 1
  %.not.i.i = icmp eq i8 %21, 0
  br i1 %.not.i.i, label %23, label %22

22:                                               ; preds = %14
  store i64 0, ptr %10, align 8, !tbaa !18
  br label %mi_heap_malloc_small_zero.exit

23:                                               ; preds = %14
  %24 = getelementptr inbounds nuw i8, ptr %8, i64 32
  %25 = load i64, ptr %24, align 8, !tbaa !21
  call void @llvm.assume(i1 true) [ "align"(ptr %10, i64 8) ]
  tail call void @llvm.memset.p0.i64(ptr nonnull align 8 %10, i8 0, i64 %25, i1 false)
  br label %mi_heap_malloc_small_zero.exit

mi_heap_malloc_small_zero.exit:                   ; preds = %12, %22, %23
  %.0.i.i = phi ptr [ %13, %12 ], [ %10, %22 ], [ %10, %23 ]
  ret ptr %.0.i.i
}